; Function Attrs: nounwind uwtable
define range(i32 -1, 1) i32 @H5F__super_ext_open(ptr noundef %0, i64 noundef %1, ptr noundef %2) local_unnamed_addr #0 {
  %4 = load i8, ptr @H5F_init_g, align 1, !tbaa !3, !range !7, !noundef !8
  %5 = trunc nuw i8 %4 to i1
  %6 = load i8, ptr @H5_libterm_g, align 1, !range !7
  %7 = trunc nuw i8 %6 to i1
  %8 = xor i1 %7, true
  %9 = select i1 %5, i1 true, i1 %8
  br i1 %9, label %10, label %19, !prof !9

10:                                               ; preds = %3
  %11 = tail call i32 @H5O_loc_reset(ptr noundef %2) #6
  store ptr %0, ptr %2, align 8, !tbaa !10
  %12 = getelementptr inbounds nuw i8, ptr %2, i64 8
  store i64 %1, ptr %12, align 8, !tbaa !15
  %13 = tail call i32 @H5O_open(ptr noundef nonnull %2) #6
  %14 = icmp slt i32 %13, 0
  br i1 %14, label %15, label %19

15:                                               ; preds = %10
  %16 = load i64, ptr @H5E_FILE_g, align 8, !tbaa !16
  %17 = load i64, ptr @H5E_CANTOPENOBJ_g, align 8, !tbaa !16
  %18 = tail call i32 (ptr, ptr, i32, i64, i64, ptr, ...) @H5E_printf_stack(ptr noundef nonnull @.str.1, ptr noundef nonnull @__func__.H5F__super_ext_open, i32 noundef 159, i64 noundef %16, i64 noundef %17, ptr noundef nonnull @.str.2) #6
  br label %19

19:                                               ; preds = %15, %10, %3
  %.0 = phi i32 [ -1, %15 ], [ 0, %10 ], [ 0, %3 ]
  ret i32 %.0
}